; Function Attrs: nounwind sspstrong uwtable
define internal noundef i64 @rb_f_getenv(i64 %0, i64 noundef %1) #0 {
  %3 = alloca i64, align 8
  store i64 %1, ptr %3, align 8, !tbaa !7
  %4 = call i64 @rb_string_value(ptr noundef nonnull %3) #28
  %5 = load volatile i64, ptr %3, align 8, !tbaa !7
  %6 = call fastcc ptr @get_env_cstr(i64 noundef %5, ptr noundef nonnull @.str.118)
  %7 = call fastcc i64 @getenv_with_lock(ptr noundef %6)
  ret i64 %7
}